; Function Attrs: mustprogress nounwind uwtable
define dso_local void @_ZN4llvm12OverlapStats16accumulateCountsERKNSt7__cxx1112basic_stringIcSt11char_traitsIcESaIcEEES8_b(ptr dead_on_unwind noalias writable writeonly sret(%"class.llvm::Error") align 8 captures(none) initializes((0, 8)) %0, ptr noundef nonnull align 8 dereferenceable(249) %1, ptr noundef nonnull align 8 dereferenceable(32) %2, ptr noundef nonnull align 8 dereferenceable(32) %3, i1 noundef zeroext %4) local_unnamed_addr #0 align 2 {
  %6 = alloca %"class.llvm::Error", align 8
  %7 = alloca %"class.llvm::Error", align 8
  %8 = zext i1 %4 to i8
  call fastcc void @"_ZZN4llvm12OverlapStats16accumulateCountsERKNSt7__cxx1112basic_stringIcSt11char_traitsIcESaIcEEES8_bENK3$_0clES8_RNS_17CountSumOrPercentE"(ptr dead_on_unwind noalias writable align 8 %6, i8 %8, ptr noundef nonnull align 8 dereferenceable(32) %2, ptr noundef nonnull align 8 dereferenceable(40) %1)
  %9 = load ptr, ptr %6, align 8
  %.not = icmp eq ptr %9, null
  br i1 %.not, label %_ZN4llvm5ErrorD2Ev.exit, label %_ZN4llvm5ErrorD2Ev.exit6

_ZN4llvm5ErrorD2Ev.exit:                          ; preds = %5
  %10 = getelementptr inbounds nuw i8, ptr %1, i64 40
  call fastcc void @"_ZZN4llvm12OverlapStats16accumulateCountsERKNSt7__cxx1112basic_stringIcSt11char_traitsIcESaIcEEES8_bENK3$_0clES8_RNS_17CountSumOrPercentE"(ptr dead_on_unwind noalias writable align 8 %7, i8 %8, ptr noundef nonnull align 8 dereferenceable(32) %3, ptr noundef nonnull align 8 dereferenceable(40) %10)
  %11 = load ptr, ptr %7, align 8
  %.not10 = icmp eq ptr %11, null
  br i1 %.not10, label %12, label %_ZN4llvm5ErrorD2Ev.exit6

12:                                               ; preds = %_ZN4llvm5ErrorD2Ev.exit
  %13 = getelementptr inbounds nuw i8, ptr %1, i64 208
  store ptr %2, ptr %13, align 8
  %14 = getelementptr inbounds nuw i8, ptr %1, i64 216
  store ptr %3, ptr %14, align 8
  %15 = getelementptr inbounds nuw i8, ptr %1, i64 248
  store i8 1, ptr %15, align 8
  br label %_ZN4llvm5ErrorD2Ev.exit6

_ZN4llvm5ErrorD2Ev.exit6:                         ; preds = %_ZN4llvm5ErrorD2Ev.exit, %5, %12
  %.sink = phi ptr [ null, %12 ], [ %9, %5 ], [ %11, %_ZN4llvm5ErrorD2Ev.exit ]
  store ptr %.sink, ptr %0, align 8
  ret void
}